; ModuleID = '24/2295.cpp'
source_filename = "24/2295.cpp"
target datalayout = "e-m:e-p270:32:32-p271:32:32-p272:64:64-i64:64-f80:128-n8:16:32:64-S128"
target triple = "x86_64-pc-linux-gnu"

%"class.std::ios_base::Init" = type { i8 }
%"class.std::basic_istream" = type { i32 (...)**, i64, %"class.std::basic_ios" }
%"class.std::basic_ios" = type { %"class.std::ios_base", %"class.std::basic_ostream"*, i8, i8, %"class.std::basic_streambuf"*, %"class.std::ctype"*, %"class.std::num_put"*, %"class.std::num_get"* }
%"class.std::ios_base" = type { i32 (...)**, i64, i64, i32, i32, i32, %"struct.std::ios_base::_Callback_list"*, %"struct.std::ios_base::_Words", [8 x %"struct.std::ios_base::_Words"], i32, %"struct.std::ios_base::_Words"*, %"class.std::locale" }
%"struct.std::ios_base::_Callback_list" = type { %"struct.std::ios_base::_Callback_list"*, void (i32, %"class.std::ios_base"*, i32)*, i32, i32 }
%"struct.std::ios_base::_Words" = type { i8*, i64 }
%"class.std::locale" = type { %"class.std::locale::_Impl"* }
%"class.std::locale::_Impl" = type { i32, %"class.std::locale::facet"**, i64, %"class.std::locale::facet"**, i8** }
%"class.std::locale::facet" = type <{ i32 (...)**, i32, [4 x i8] }>
%"class.std::basic_ostream" = type { i32 (...)**, %"class.std::basic_ios" }
%"class.std::basic_streambuf" = type { i32 (...)**, i8*, i8*, i8*, i8*, i8*, i8*, %"class.std::locale" }
%"class.std::ctype" = type <{ %"class.std::locale::facet.base", [4 x i8], %struct.__locale_struct*, i8, [7 x i8], i32*, i32*, i16*, i8, [256 x i8], [256 x i8], i8, [6 x i8] }>
%"class.std::locale::facet.base" = type <{ i32 (...)**, i32 }>
%struct.__locale_struct = type { [13 x %struct.__locale_data*], i16*, i32*, i32*, [13 x i8*] }
%struct.__locale_data = type opaque
%"class.std::num_put" = type { %"class.std::locale::facet.base", [4 x i8] }
%"class.std::num_get" = type { %"class.std::locale::facet.base", [4 x i8] }

@_ZStL8__ioinit = internal global %"class.std::ios_base::Init" zeroinitializer, align 1
@__dso_handle = external hidden global i8
@_ZSt3cin = external dso_local global %"class.std::basic_istream", align 8
@_ZSt4cout = external dso_local global %"class.std::basic_ostream", align 8
@llvm.global_ctors = appending global [1 x { i32, void ()*, i8* }] [{ i32, void ()*, i8* } { i32 65535, void ()* @_GLOBAL__sub_I_2295.cpp, i8* null }]

; Function Attrs: noinline uwtable
define internal void @__cxx_global_var_init() #0 section ".text.startup" {
  call void @_ZNSt8ios_base4InitC1Ev(%"class.std::ios_base::Init"* @_ZStL8__ioinit)
  %1 = call i32 @__cxa_atexit(void (i8*)* bitcast (void (%"class.std::ios_base::Init"*)* @_ZNSt8ios_base4InitD1Ev to void (i8*)*), i8* getelementptr inbounds (%"class.std::ios_base::Init", %"class.std::ios_base::Init"* @_ZStL8__ioinit, i32 0, i32 0), i8* @__dso_handle) #3
  ret void
}

declare dso_local void @_ZNSt8ios_base4InitC1Ev(%"class.std::ios_base::Init"*) unnamed_addr #1

; Function Attrs: nounwind
declare dso_local void @_ZNSt8ios_base4InitD1Ev(%"class.std::ios_base::Init"*) unnamed_addr #2

; Function Attrs: nounwind
declare dso_local i32 @__cxa_atexit(void (i8*)*, i8*, i8*) #3

; Function Attrs: noinline norecurse uwtable
define dso_local i32 @main() #4 {
  %1 = alloca i32, align 4
  %2 = alloca i8, align 1
  %3 = alloca [50 x i8], align 16
  %4 = alloca [50 x i8], align 16
  %5 = alloca [50 x i8], align 16
  %6 = alloca i32, align 4
  %7 = alloca i32, align 4
  %8 = alloca i32, align 4
  %9 = alloca i32, align 4
  store i32 0, i32* %1, align 4
  store i32 0, i32* %6, align 4
  store i32 50, i32* %7, align 4
  store i32 0, i32* %8, align 4
  br label %10

10:                                               ; preds = %77, %0
  %11 = call i32 @_ZNSi3getEv(%"class.std::basic_istream"* @_ZSt3cin)
  %12 = trunc i32 %11 to i8
  store i8 %12, i8* %2, align 1
  %13 = load i8, i8* %2, align 1
  %14 = sext i8 %13 to i32
  %15 = icmp ne i32 %14, 44
  br i1 %15, label %16, label %30

16:                                               ; preds = %10
  %17 = load i8, i8* %2, align 1
  %18 = sext i8 %17 to i32
  %19 = icmp ne i32 %18, 32
  br i1 %19, label %20, label %30

20:                                               ; preds = %16
  %21 = load i8, i8* %2, align 1
  %22 = sext i8 %21 to i32
  %23 = icmp ne i32 %22, 10
  br i1 %23, label %24, label %30

24:                                               ; preds = %20
  %25 = load i8, i8* %2, align 1
  %26 = load i32, i32* %8, align 4
  %27 = add nsw i32 %26, 1
  store i32 %27, i32* %8, align 4
  %28 = sext i32 %26 to i64
  %29 = getelementptr inbounds [50 x i8], [50 x i8]* %3, i64 0, i64 %28
  store i8 %25, i8* %29, align 1
  br label %76

30:                                               ; preds = %20, %16, %10
  %31 = load i32, i32* %8, align 4
  %32 = load i32, i32* %6, align 4
  %33 = icmp sgt i32 %31, %32
  br i1 %33, label %34, label %52

34:                                               ; preds = %30
  %35 = load i32, i32* %8, align 4
  store i32 %35, i32* %9, align 4
  %36 = load i32, i32* %8, align 4
  store i32 %36, i32* %6, align 4
  br label %37

37:                                               ; preds = %40, %34
  %38 = load i32, i32* %8, align 4
  %39 = icmp sgt i32 %38, 0
  br i1 %39, label %40, label %50

40:                                               ; preds = %37
  %41 = load i32, i32* %8, align 4
  %42 = add nsw i32 %41, -1
  store i32 %42, i32* %8, align 4
  %43 = load i32, i32* %8, align 4
  %44 = sext i32 %43 to i64
  %45 = getelementptr inbounds [50 x i8], [50 x i8]* %3, i64 0, i64 %44
  %46 = load i8, i8* %45, align 1
  %47 = load i32, i32* %8, align 4
  %48 = sext i32 %47 to i64
  %49 = getelementptr inbounds [50 x i8], [50 x i8]* %4, i64 0, i64 %48
  store i8 %46, i8* %49, align 1
  br label %37

50:                                               ; preds = %37
  %51 = load i32, i32* %9, align 4
  store i32 %51, i32* %8, align 4
  br label %52

52:                                               ; preds = %50, %30
  %53 = load i32, i32* %8, align 4
  %54 = load i32, i32* %7, align 4
  %55 = icmp slt i32 %53, %54
  br i1 %55, label %56, label %75

56:                                               ; preds = %52
  %57 = load i32, i32* %8, align 4
  %58 = icmp ne i32 %57, 0
  br i1 %58, label %59, label %75

59:                                               ; preds = %56
  %60 = load i32, i32* %8, align 4
  store i32 %60, i32* %7, align 4
  br label %61

61:                                               ; preds = %64, %59
  %62 = load i32, i32* %8, align 4
  %63 = icmp sgt i32 %62, 0
  br i1 %63, label %64, label %74

64:                                               ; preds = %61
  %65 = load i32, i32* %8, align 4
  %66 = add nsw i32 %65, -1
  store i32 %66, i32* %8, align 4
  %67 = load i32, i32* %8, align 4
  %68 = sext i32 %67 to i64
  %69 = getelementptr inbounds [50 x i8], [50 x i8]* %3, i64 0, i64 %68
  %70 = load i8, i8* %69, align 1
  %71 = load i32, i32* %8, align 4
  %72 = sext i32 %71 to i64
  %73 = getelementptr inbounds [50 x i8], [50 x i8]* %5, i64 0, i64 %72
  store i8 %70, i8* %73, align 1
  br label %61

74:                                               ; preds = %61
  br label %75

75:                                               ; preds = %74, %56, %52
  store i32 0, i32* %8, align 4
  br label %76

76:                                               ; preds = %75, %24
  br label %77

77:                                               ; preds = %76
  %78 = load i8, i8* %2, align 1
  %79 = sext i8 %78 to i32
  %80 = icmp ne i32 %79, 10
  br i1 %80, label %10, label %81

81:                                               ; preds = %77
  store i32 0, i32* %8, align 4
  br label %82

82:                                               ; preds = %92, %81
  %83 = load i32, i32* %8, align 4
  %84 = load i32, i32* %6, align 4
  %85 = icmp slt i32 %83, %84
  br i1 %85, label %86, label %95

86:                                               ; preds = %82
  %87 = load i32, i32* %8, align 4
  %88 = sext i32 %87 to i64
  %89 = getelementptr inbounds [50 x i8], [50 x i8]* %4, i64 0, i64 %88
  %90 = load i8, i8* %89, align 1
  %91 = call dereferenceable(272) %"class.std::basic_ostream"* @_ZStlsISt11char_traitsIcEERSt13basic_ostreamIcT_ES5_c(%"class.std::basic_ostream"* dereferenceable(272) @_ZSt4cout, i8 signext %90)
  br label %92

92:                                               ; preds = %86
  %93 = load i32, i32* %8, align 4
  %94 = add nsw i32 %93, 1
  store i32 %94, i32* %8, align 4
  br label %82

95:                                               ; preds = %82
  %96 = call dereferenceable(272) %"class.std::basic_ostream"* @_ZNSolsEPFRSoS_E(%"class.std::basic_ostream"* @_ZSt4cout, %"class.std::basic_ostream"* (%"class.std::basic_ostream"*)* @_ZSt4endlIcSt11char_traitsIcEERSt13basic_ostreamIT_T0_ES6_)
  store i32 0, i32* %8, align 4
  br label %97

97:                                               ; preds = %107, %95
  %98 = load i32, i32* %8, align 4
  %99 = load i32, i32* %7, align 4
  %100 = icmp slt i32 %98, %99
  br i1 %100, label %101, label %110

101:                                              ; preds = %97
  %102 = load i32, i32* %8, align 4
  %103 = sext i32 %102 to i64
  %104 = getelementptr inbounds [50 x i8], [50 x i8]* %5, i64 0, i64 %103
  %105 = load i8, i8* %104, align 1
  %106 = call dereferenceable(272) %"class.std::basic_ostream"* @_ZStlsISt11char_traitsIcEERSt13basic_ostreamIcT_ES5_c(%"class.std::basic_ostream"* dereferenceable(272) @_ZSt4cout, i8 signext %105)
  br label %107

107:                                              ; preds = %101
  %108 = load i32, i32* %8, align 4
  %109 = add nsw i32 %108, 1
  store i32 %109, i32* %8, align 4
  br label %97

110:                                              ; preds = %97
  %111 = call dereferenceable(272) %"class.std::basic_ostream"* @_ZNSolsEPFRSoS_E(%"class.std::basic_ostream"* @_ZSt4cout, %"class.std::basic_ostream"* (%"class.std::basic_ostream"*)* @_ZSt4endlIcSt11char_traitsIcEERSt13basic_ostreamIT_T0_ES6_)
  ret i32 0
}

declare dso_local i32 @_ZNSi3getEv(%"class.std::basic_istream"*) #1

declare dso_local dereferenceable(272) %"class.std::basic_ostream"* @_ZStlsISt11char_traitsIcEERSt13basic_ostreamIcT_ES5_c(%"class.std::basic_ostream"* dereferenceable(272), i8 signext) #1

declare dso_local dereferenceable(272) %"class.std::basic_ostream"* @_ZNSolsEPFRSoS_E(%"class.std::basic_ostream"*, %"class.std::basic_ostream"* (%"class.std::basic_ostream"*)*) #1

declare dso_local dereferenceable(272) %"class.std::basic_ostream"* @_ZSt4endlIcSt11char_traitsIcEERSt13basic_ostreamIT_T0_ES6_(%"class.std::basic_ostream"* dereferenceable(272)) #1

; Function Attrs: noinline uwtable
define internal void @_GLOBAL__sub_I_2295.cpp() #0 section ".text.startup" {
  call void @__cxx_global_var_init()
  ret void
}


!llvm.module.flags = !{!0}
!llvm.ident = !{!1}

!0 = !{i32 1, !"wchar_size", i32 4}
!1 = !{!"clang version 10.0.0-4ubuntu1 "}
